target datalayout = "e-m:e-p270:32:32-p271:32:32-p272:64:64-i64:64-i128:128-f80:128-n8:16:32:64-S128"
target triple = "x86_64-pc-linux-gnu"

%class.QMap = type { %"class.QtPrivate::QExplicitlySharedDataPointerV2" }
%"class.QtPrivate::QExplicitlySharedDataPointerV2" = type { ptr }

@_ZZN17PreferenceManager9factoriesEvE4inst = internal global %class.QMap zeroinitializer, align 8
@_ZGVZN17PreferenceManager9factoriesEvE4inst = internal global i64 0, align 8
@__dso_handle = external hidden global i8

; Function Attrs: mustprogress nounwind null_pointer_is_valid sspstrong uwtable
define noundef align 8 dereferenceable(8) ptr @_ZN17PreferenceManager9factoriesEv() #1 align 2 {
  %1 = load atomic i8, ptr @_ZGVZN17PreferenceManager9factoriesEvE4inst acquire, align 8
  %2 = icmp eq i8 %1, 0
  br i1 %2, label %3, label %8, !prof !6

3:                                                ; preds = %0
  %4 = call i32 @__cxa_guard_acquire(ptr @_ZGVZN17PreferenceManager9factoriesEvE4inst) #3
  %5 = icmp ne i32 %4, 0
  br i1 %5, label %6, label %8

6:                                                ; preds = %3
  %7 = call i32 @__cxa_atexit(ptr @_ZN4QMapIiP17PreferenceFactoryED2Ev, ptr @_ZZN17PreferenceManager9factoriesEvE4inst, ptr @__dso_handle) #3
  call void @__cxa_guard_release(ptr @_ZGVZN17PreferenceManager9factoriesEvE4inst) #3
  br label %8

8:                                                ; preds = %6, %3, %0
  ret ptr @_ZZN17PreferenceManager9factoriesEvE4inst
}

; Function Attrs: mustprogress nounwind null_pointer_is_valid sspstrong uwtable
define void @_ZN17PreferenceManagerD2Ev(ptr noundef align 8 dereferenceable_or_null(16) %0) unnamed_addr #1 align 2 personality ptr @__gxx_personality_v0 {
  %2 = alloca ptr, align 8
  store ptr %0, ptr %2, align 8
  %3 = load ptr, ptr %2, align 8
  store ptr getelementptr inbounds inrange(-16, 96) ({ [14 x ptr] }, ptr @_ZTV17PreferenceManager, i32 0, i32 0, i32 2), ptr %3, align 8
  %4 = call noundef align 8 dereferenceable(8) ptr @_ZN17PreferenceManager9factoriesEv()
  invoke void @_ZN4QMapIiP17PreferenceFactoryE5clearEv(ptr noundef align 8 dereferenceable_or_null(8) %4)
          to label %5 unwind label %6

5:                                                ; preds = %1
  call void @_ZN7QObjectD2Ev(ptr noundef align 8 dereferenceable_or_null(16) %3) #3
  ret void

6:                                                ; preds = %1
  %7 = landingpad { ptr, i32 }
          catch ptr null
  %8 = extractvalue { ptr, i32 } %7, 0
  call void @__clang_call_terminate(ptr %8) #18
  unreachable
}