; Function Attrs: mustprogress nounwind null_pointer_is_valid sspstrong uwtable
define void @_ZN17PreferenceManagerD2Ev(ptr noundef align 8 dereferenceable_or_null(16) initializes((0, 8)) %0) unnamed_addr #1 align 2 personality ptr @__gxx_personality_v0 {
  store ptr getelementptr inbounds nuw inrange(-16, 96) (i8, ptr @_ZTV17PreferenceManager, i64 16), ptr %0, align 8
  %2 = load atomic i8, ptr @_ZGVZN17PreferenceManager9factoriesEvE4inst acquire, align 8
  %3 = icmp eq i8 %2, 0
  br i1 %3, label %4, label %_ZN17PreferenceManager9factoriesEv.exit, !prof !6

4:                                                ; preds = %1
  %5 = tail call i32 @__cxa_guard_acquire(ptr nonnull @_ZGVZN17PreferenceManager9factoriesEvE4inst) #17
  %.not.i = icmp eq i32 %5, 0
  br i1 %.not.i, label %_ZN17PreferenceManager9factoriesEv.exit, label %6

6:                                                ; preds = %4
  %7 = tail call i32 @__cxa_atexit(ptr nonnull @_ZN4QMapIiP17PreferenceFactoryED2Ev, ptr nonnull @_ZZN17PreferenceManager9factoriesEvE4inst, ptr nonnull @__dso_handle) #17
  tail call void @__cxa_guard_release(ptr nonnull @_ZGVZN17PreferenceManager9factoriesEvE4inst) #17
  br label %_ZN17PreferenceManager9factoriesEv.exit

_ZN17PreferenceManager9factoriesEv.exit:          ; preds = %1, %4, %6
  invoke void @_ZN4QMapIiP17PreferenceFactoryE5clearEv(ptr noundef nonnull align 8 dereferenceable_or_null(8) @_ZZN17PreferenceManager9factoriesEvE4inst)
          to label %8 unwind label %9

8:                                                ; preds = %_ZN17PreferenceManager9factoriesEv.exit
  tail call void @_ZN7QObjectD2Ev(ptr noundef align 8 dereferenceable_or_null(16) %0) #17
  ret void

9:                                                ; preds = %_ZN17PreferenceManager9factoriesEv.exit
  %10 = landingpad { ptr, i32 }
          catch ptr null
  %11 = extractvalue { ptr, i32 } %10, 0
  tail call void @__clang_call_terminate(ptr %11) #18
  unreachable
}